; Function Attrs: nounwind uwtable
define hidden i64 @SDL_GetTicks_REAL() local_unnamed_addr #0 {
  %1 = load i64, ptr @tick_start, align 8
  %.not = icmp eq i64 %1, 0
  br i1 %.not, label %SDL_InitTicks.exit, label %16

SDL_InitTicks.exit:                               ; preds = %0
  %2 = tail call zeroext i1 @SDL_AddHintCallback_REAL(ptr noundef nonnull @.str.4, ptr noundef nonnull @SDL_TimerResolutionChanged, ptr noundef null) #3
  %3 = tail call i64 @SDL_GetPerformanceFrequency_REAL() #3
  %4 = trunc i64 %3 to i32
  %5 = tail call i32 @SDL_CalculateGCD(i32 noundef 1000000000, i32 noundef %4) #3
  %6 = zext i32 %5 to i64
  %7 = udiv i32 1000000000, %5
  store i32 %7, ptr @tick_numerator_ns, align 4
  %8 = udiv i64 %3, %6
  %9 = trunc i64 %8 to i32
  store i32 %9, ptr @tick_denominator_ns, align 4
  %10 = tail call i32 @SDL_CalculateGCD(i32 noundef 1000, i32 noundef %4) #3
  %11 = udiv i32 1000, %10
  store i32 %11, ptr @tick_numerator_ms, align 4
  %12 = zext i32 %10 to i64
  %13 = udiv i64 %3, %12
  %14 = trunc i64 %13 to i32
  store i32 %14, ptr @tick_denominator_ms, align 4
  %15 = tail call i64 @SDL_GetPerformanceCounter_REAL() #3
  %.not8.i = icmp eq i64 %15, 0
  %spec.select.i = select i1 %.not8.i, i64 -1, i64 %15
  store i64 %spec.select.i, ptr @tick_start, align 8
  br label %16

16:                                               ; preds = %SDL_InitTicks.exit, %0
  %17 = tail call i64 @SDL_GetPerformanceCounter_REAL() #3
  %18 = load i64, ptr @tick_start, align 8
  %19 = sub i64 %17, %18
  %20 = load i32, ptr @tick_numerator_ms, align 4
  %21 = zext nneg i32 %20 to i64
  %22 = mul i64 %19, %21
  %23 = load i32, ptr @tick_denominator_ms, align 4
  %24 = zext i32 %23 to i64
  %25 = udiv i64 %22, %24
  ret i64 %25
}